target datalayout = "e-m:e-p270:32:32-p271:32:32-p272:64:64-i64:64-i128:128-f80:128-n8:16:32:64-S128"
target triple = "x86_64-pc-linux-gnu"

%"class.cv::Point_" = type { float, float }
%"class.cv::utils::trace::details::Region" = type <{ ptr, i32, [4 x i8] }>
%"struct.std::_Vector_base.37" = type { %"struct.std::_Vector_base<cv::Point_<float>, std::allocator<cv::Point_<float>>>::_Vector_impl" }
%"struct.std::_Vector_base<cv::Point_<float>, std::allocator<cv::Point_<float>>>::_Vector_impl" = type { %"struct.std::_Vector_base<cv::Point_<float>, std::allocator<cv::Point_<float>>>::_Vector_impl_data" }
%"struct.std::_Vector_base<cv::Point_<float>, std::allocator<cv::Point_<float>>>::_Vector_impl_data" = type { ptr, ptr, ptr }

; Function Attrs: mustprogress nounwind uwtable
define linkonce_odr noundef float @_ZSt4fabsf(float noundef %0) #1 comdat {
  %2 = alloca float, align 4
  store float %0, ptr %2, align 4
  %3 = load float, ptr %2, align 4
  %4 = call float @llvm.fabs.f32(float %3)
  ret float %4
}

; Function Attrs: mustprogress nounwind uwtable
define linkonce_odr hidden noundef i64 @_ZNKSt6vectorIN2cv6Point_IfEESaIS2_EE4sizeEv(ptr noundef nonnull align 8 dereferenceable(24) %0) #1 comdat align 2 {
  %2 = alloca ptr, align 8
  store ptr %0, ptr %2, align 8
  %3 = load ptr, ptr %2, align 8
  %4 = getelementptr inbounds %"struct.std::_Vector_base.37", ptr %3, i32 0, i32 0
  %5 = getelementptr inbounds %"struct.std::_Vector_base<cv::Point_<float>, std::allocator<cv::Point_<float>>>::_Vector_impl_data", ptr %4, i32 0, i32 1
  %6 = load ptr, ptr %5, align 8
  %7 = getelementptr inbounds %"struct.std::_Vector_base.37", ptr %3, i32 0, i32 0
  %8 = getelementptr inbounds %"struct.std::_Vector_base<cv::Point_<float>, std::allocator<cv::Point_<float>>>::_Vector_impl_data", ptr %7, i32 0, i32 0
  %9 = load ptr, ptr %8, align 8
  %10 = ptrtoint ptr %6 to i64
  %11 = ptrtoint ptr %9 to i64
  %12 = sub i64 %10, %11
  %13 = sdiv exact i64 %12, 8
  ret i64 %13
}

; Function Attrs: mustprogress nounwind uwtable
define linkonce_odr hidden noundef nonnull align 4 dereferenceable(8) ptr @_ZNKSt6vectorIN2cv6Point_IfEESaIS2_EEixEm(ptr noundef nonnull align 8 dereferenceable(24) %0, i64 noundef %1) #1 comdat align 2 {
  %3 = alloca ptr, align 8
  %4 = alloca i64, align 8
  store ptr %0, ptr %3, align 8
  store i64 %1, ptr %4, align 8
  %5 = load ptr, ptr %3, align 8
  %6 = getelementptr inbounds %"struct.std::_Vector_base.37", ptr %5, i32 0, i32 0
  %7 = getelementptr inbounds %"struct.std::_Vector_base<cv::Point_<float>, std::allocator<cv::Point_<float>>>::_Vector_impl_data", ptr %6, i32 0, i32 0
  %8 = load ptr, ptr %7, align 8
  %9 = load i64, ptr %4, align 8
  %10 = getelementptr inbounds %"class.cv::Point_", ptr %8, i64 %9
  ret ptr %10
}

; Function Attrs: mustprogress uwtable
define noundef i32 @_ZN2cv15getNearestPointERKSt6vectorINS_6Point_IfEESaIS2_EEf(ptr noundef nonnull align 8 dereferenceable(24) %0, float noundef %1) #0 personality ptr @__gxx_personality_v0 {
  %3 = alloca ptr, align 8
  %4 = alloca float, align 4
  %5 = alloca %"class.cv::utils::trace::details::Region", align 8
  %6 = alloca i32, align 4
  %7 = alloca float, align 4
  %8 = alloca i64, align 8
  %9 = alloca float, align 4
  %10 = alloca ptr, align 8
  %11 = alloca i32, align 4
  store ptr %0, ptr %3, align 8
  store float %1, ptr %4, align 4
  call void @_ZN2cv5utils5trace7details6RegionC1ERKNS3_21LocationStaticStorageE(ptr noundef nonnull align 8 dereferenceable(12) %5, ptr noundef nonnull align 8 dereferenceable(32) @_ZZN2cv15getNearestPointERKSt6vectorINS_6Point_IfEESaIS2_EEfE25__cv_trace_location_fn553)
  store i32 -1, ptr %6, align 4
  %12 = load float, ptr %4, align 4
  %13 = fcmp oge float %12, 0.000000e+00
  br i1 %13, label %14, label %49

14:                                               ; preds = %2
  %15 = load float, ptr %4, align 4
  %16 = fcmp ole float %15, 1.000000e+00
  br i1 %16, label %17, label %49

17:                                               ; preds = %14
  store float 0x47EFFFFFE0000000, ptr %7, align 4
  store i64 0, ptr %8, align 8
  br label %18

18:                                               ; preds = %45, %17
  %19 = load i64, ptr %8, align 8
  %20 = load ptr, ptr %3, align 8
  %21 = call noundef i64 @_ZNKSt6vectorIN2cv6Point_IfEESaIS2_EE4sizeEv(ptr noundef nonnull align 8 dereferenceable(24) %20) #16
  %22 = icmp ult i64 %19, %21
  br i1 %22, label %23, label %48

23:                                               ; preds = %18
  %24 = load float, ptr %4, align 4
  %25 = load ptr, ptr %3, align 8
  %26 = load i64, ptr %8, align 8
  %27 = call noundef nonnull align 4 dereferenceable(8) ptr @_ZNKSt6vectorIN2cv6Point_IfEESaIS2_EEixEm(ptr noundef nonnull align 8 dereferenceable(24) %25, i64 noundef %26) #16
  %28 = getelementptr inbounds %"class.cv::Point_", ptr %27, i32 0, i32 0
  %29 = load float, ptr %28, align 4
  %30 = fsub float %24, %29
  %31 = invoke noundef float @_ZSt4fabsf(float noundef %30)
          to label %32 unwind label %40

32:                                               ; preds = %23
  store float %31, ptr %9, align 4
  %33 = load float, ptr %9, align 4
  %34 = load float, ptr %7, align 4
  %35 = fcmp ole float %33, %34
  br i1 %35, label %36, label %44

36:                                               ; preds = %32
  %37 = load i64, ptr %8, align 8
  %38 = trunc i64 %37 to i32
  store i32 %38, ptr %6, align 4
  %39 = load float, ptr %9, align 4
  store float %39, ptr %7, align 4
  br label %44

40:                                               ; preds = %23
  %41 = landingpad { ptr, i32 }
          cleanup
  %42 = extractvalue { ptr, i32 } %41, 0
  store ptr %42, ptr %10, align 8
  %43 = extractvalue { ptr, i32 } %41, 1
  store i32 %43, ptr %11, align 4
  call void @_ZN2cv5utils5trace7details6RegionD2Ev(ptr noundef nonnull align 8 dereferenceable(12) %5) #16
  br label %51

44:                                               ; preds = %36, %32
  br label %45

45:                                               ; preds = %44
  %46 = load i64, ptr %8, align 8
  %47 = add i64 %46, 1
  store i64 %47, ptr %8, align 8
  br label %18, !llvm.loop !12

48:                                               ; preds = %18
  br label %49

49:                                               ; preds = %48, %14, %2
  %50 = load i32, ptr %6, align 4
  call void @_ZN2cv5utils5trace7details6RegionD2Ev(ptr noundef nonnull align 8 dereferenceable(12) %5) #16
  ret i32 %50

51:                                               ; preds = %40
  %52 = load ptr, ptr %10, align 8
  %53 = load i32, ptr %11, align 4
  %54 = insertvalue { ptr, i32 } poison, ptr %52, 0
  %55 = insertvalue { ptr, i32 } %54, i32 %53, 1
  resume { ptr, i32 } %55
}

; Function Attrs: mustprogress uwtable
define noundef float @_ZN2cv9getRecallERKSt6vectorINS_6Point_IfEESaIS2_EEf(ptr noundef nonnull align 8 dereferenceable(24) %0, float noundef %1) #0 personality ptr @__gxx_personality_v0 {
  %3 = alloca ptr, align 8
  %4 = alloca float, align 4
  %5 = alloca %"class.cv::utils::trace::details::Region", align 8
  %6 = alloca i32, align 4
  %7 = alloca ptr, align 8
  %8 = alloca i32, align 4
  %9 = alloca float, align 4
  store ptr %0, ptr %3, align 8
  store float %1, ptr %4, align 4
  call void @_ZN2cv5utils5trace7details6RegionC1ERKNS3_21LocationStaticStorageE(ptr noundef nonnull align 8 dereferenceable(12) %5, ptr noundef nonnull align 8 dereferenceable(32) @_ZZN2cv9getRecallERKSt6vectorINS_6Point_IfEESaIS2_EEfE25__cv_trace_location_fn539)
  %10 = load ptr, ptr %3, align 8
  %11 = load float, ptr %4, align 4
  %12 = invoke noundef i32 @_ZN2cv15getNearestPointERKSt6vectorINS_6Point_IfEESaIS2_EEf(ptr noundef nonnull align 8 dereferenceable(24) %10, float noundef %11)
          to label %13 unwind label %23

13:                                               ; preds = %2
  store i32 %12, ptr %6, align 4
  store float -1.000000e+00, ptr %9, align 4
  %14 = load i32, ptr %6, align 4
  %15 = icmp sge i32 %14, 0
  br i1 %15, label %16, label %27

16:                                               ; preds = %13
  %17 = load ptr, ptr %3, align 8
  %18 = load i32, ptr %6, align 4
  %19 = sext i32 %18 to i64
  %20 = call noundef nonnull align 4 dereferenceable(8) ptr @_ZNKSt6vectorIN2cv6Point_IfEESaIS2_EEixEm(ptr noundef nonnull align 8 dereferenceable(24) %17, i64 noundef %19) #16
  %21 = getelementptr inbounds %"class.cv::Point_", ptr %20, i32 0, i32 1
  %22 = load float, ptr %21, align 4
  store float %22, ptr %9, align 4
  br label %27

23:                                               ; preds = %2
  %24 = landingpad { ptr, i32 }
          cleanup
  %25 = extractvalue { ptr, i32 } %24, 0
  store ptr %25, ptr %7, align 8
  %26 = extractvalue { ptr, i32 } %24, 1
  store i32 %26, ptr %8, align 4
  call void @_ZN2cv5utils5trace7details6RegionD2Ev(ptr noundef nonnull align 8 dereferenceable(12) %5) #16
  br label %29

27:                                               ; preds = %16, %13
  %28 = load float, ptr %9, align 4
  call void @_ZN2cv5utils5trace7details6RegionD2Ev(ptr noundef nonnull align 8 dereferenceable(12) %5) #16
  ret float %28

29:                                               ; preds = %23
  %30 = load ptr, ptr %7, align 8
  %31 = load i32, ptr %8, align 4
  %32 = insertvalue { ptr, i32 } poison, ptr %30, 0
  %33 = insertvalue { ptr, i32 } %32, i32 %31, 1
  resume { ptr, i32 } %33
}