; Function Attrs: mustprogress uwtable
define noundef float @_ZN2cv9getRecallERKSt6vectorINS_6Point_IfEESaIS2_EEf(ptr nocapture noundef nonnull readonly align 8 dereferenceable(24) %0, float noundef %1) local_unnamed_addr #5 personality ptr @__gxx_personality_v0 {
  %3 = alloca %"class.cv::utils::trace::details::Region", align 8
  %4 = alloca %"class.cv::utils::trace::details::Region", align 8
  call void @_ZN2cv5utils5trace7details6RegionC1ERKNS3_21LocationStaticStorageE(ptr noundef nonnull align 8 dereferenceable(12) %4, ptr noundef nonnull align 8 dereferenceable(32) @_ZZN2cv9getRecallERKSt6vectorINS_6Point_IfEESaIS2_EEfE25__cv_trace_location_fn539)
  call void @llvm.lifetime.start.p0(i64 16, ptr nonnull %3)
  invoke void @_ZN2cv5utils5trace7details6RegionC1ERKNS3_21LocationStaticStorageE(ptr noundef nonnull align 8 dereferenceable(12) %3, ptr noundef nonnull align 8 dereferenceable(32) @_ZZN2cv15getNearestPointERKSt6vectorINS_6Point_IfEESaIS2_EEfE25__cv_trace_location_fn553)
          to label %.noexc unwind label %34

.noexc:                                           ; preds = %2
  %5 = fcmp oge float %1, 0.000000e+00
  %6 = fcmp ole float %1, 1.000000e+00
  %or.cond.i = and i1 %5, %6
  br i1 %or.cond.i, label %.preheader.i, label %.loopexit.i

.preheader.i:                                     ; preds = %.noexc
  %7 = getelementptr inbounds i8, ptr %0, i64 8
  %8 = load ptr, ptr %7, align 8
  %9 = load ptr, ptr %0, align 8
  %.not.i = icmp eq ptr %8, %9
  br i1 %.not.i, label %.loopexit.i, label %.lr.ph.preheader.i

.lr.ph.preheader.i:                               ; preds = %.preheader.i
  %10 = ptrtoint ptr %8 to i64
  %11 = ptrtoint ptr %9 to i64
  %12 = sub i64 %10, %11
  %13 = ashr exact i64 %12, 3
  %umax.i = call i64 @llvm.umax.i64(i64 %13, i64 1)
  br label %.lr.ph.i

.lr.ph.i:                                         ; preds = %.lr.ph.i, %.lr.ph.preheader.i
  %.020.i = phi i32 [ %.1.i, %.lr.ph.i ], [ -1, %.lr.ph.preheader.i ]
  %.01319.i = phi i64 [ %20, %.lr.ph.i ], [ 0, %.lr.ph.preheader.i ]
  %.01418.i = phi float [ %.115.i, %.lr.ph.i ], [ 0x47EFFFFFE0000000, %.lr.ph.preheader.i ]
  %14 = getelementptr inbounds %"class.cv::Point_", ptr %9, i64 %.01319.i
  %15 = load float, ptr %14, align 4
  %16 = fsub float %1, %15
  %17 = call noundef float @llvm.fabs.f32(float %16)
  %18 = fcmp ugt float %17, %.01418.i
  %19 = trunc i64 %.01319.i to i32
  %.115.i = select i1 %18, float %.01418.i, float %17
  %.1.i = select i1 %18, i32 %.020.i, i32 %19
  %20 = add nuw i64 %.01319.i, 1
  %exitcond.not.i = icmp eq i64 %20, %umax.i
  br i1 %exitcond.not.i, label %.loopexit.i, label %.lr.ph.i, !llvm.loop !45

.loopexit.i:                                      ; preds = %.lr.ph.i, %.preheader.i, %.noexc
  %.2.i = phi i32 [ -1, %.noexc ], [ -1, %.preheader.i ], [ %.1.i, %.lr.ph.i ]
  %21 = getelementptr inbounds i8, ptr %3, i64 8
  %22 = load i32, ptr %21, align 8
  %.not.i.i = icmp eq i32 %22, 0
  br i1 %.not.i.i, label %27, label %23

23:                                               ; preds = %.loopexit.i
  invoke void @_ZN2cv5utils5trace7details6Region7destroyEv(ptr noundef nonnull align 8 dereferenceable(12) %3)
          to label %27 unwind label %24

24:                                               ; preds = %23
  %25 = landingpad { ptr, i32 }
          catch ptr null
  %26 = extractvalue { ptr, i32 } %25, 0
  call void @__clang_call_terminate(ptr %26) #23
  unreachable

27:                                               ; preds = %23, %.loopexit.i
  call void @llvm.lifetime.end.p0(i64 16, ptr nonnull %3)
  %28 = icmp sgt i32 %.2.i, -1
  br i1 %28, label %29, label %36

29:                                               ; preds = %27
  %30 = zext nneg i32 %.2.i to i64
  %31 = load ptr, ptr %0, align 8
  %32 = getelementptr inbounds %"class.cv::Point_", ptr %31, i64 %30, i32 1
  %33 = load float, ptr %32, align 4
  br label %36

34:                                               ; preds = %2
  %35 = landingpad { ptr, i32 }
          cleanup
  call void @_ZN2cv5utils5trace7details6RegionD2Ev(ptr noundef nonnull align 8 dereferenceable(12) %4) #21
  resume { ptr, i32 } %35

36:                                               ; preds = %29, %27
  %.0 = phi float [ %33, %29 ], [ -1.000000e+00, %27 ]
  %37 = getelementptr inbounds i8, ptr %4, i64 8
  %38 = load i32, ptr %37, align 8
  %.not.i8 = icmp eq i32 %38, 0
  br i1 %.not.i8, label %_ZN2cv5utils5trace7details6RegionD2Ev.exit, label %39

39:                                               ; preds = %36
  invoke void @_ZN2cv5utils5trace7details6Region7destroyEv(ptr noundef nonnull align 8 dereferenceable(12) %4)
          to label %_ZN2cv5utils5trace7details6RegionD2Ev.exit unwind label %40

40:                                               ; preds = %39
  %41 = landingpad { ptr, i32 }
          catch ptr null
  %42 = extractvalue { ptr, i32 } %41, 0
  call void @__clang_call_terminate(ptr %42) #23
  unreachable

_ZN2cv5utils5trace7details6RegionD2Ev.exit:       ; preds = %36, %39
  ret float %.0
}